target datalayout = "e-m:e-p270:32:32-p271:32:32-p272:64:64-i64:64-i128:128-f80:128-n8:16:32:64-S128"
target triple = "x86_64-pc-linux-gnu"

%struct.AVProbeData = type { ptr, ptr, i32, ptr }

; Function Attrs: nounwind uwtable
define internal i32 @ircam_probe(ptr noundef %0) #0 {
  %2 = alloca i32, align 4
  %3 = alloca ptr, align 8
  store ptr %0, ptr %3, align 8, !tbaa !4
  %4 = load ptr, ptr %3, align 8, !tbaa !4
  %5 = getelementptr inbounds nuw %struct.AVProbeData, ptr %4, i32 0, i32 1
  %6 = load ptr, ptr %5, align 8, !tbaa !9
  %7 = getelementptr inbounds i8, ptr %6, i64 0
  %8 = load i8, ptr %7, align 1, !tbaa !13
  %9 = zext i8 %8 to i32
  %10 = icmp eq i32 %9, 100
  br i1 %10, label %11, label %43

11:                                               ; preds = %1
  %12 = load ptr, ptr %3, align 8, !tbaa !4
  %13 = getelementptr inbounds nuw %struct.AVProbeData, ptr %12, i32 0, i32 1
  %14 = load ptr, ptr %13, align 8, !tbaa !9
  %15 = getelementptr inbounds i8, ptr %14, i64 1
  %16 = load i8, ptr %15, align 1, !tbaa !13
  %17 = zext i8 %16 to i32
  %18 = icmp eq i32 %17, 163
  br i1 %18, label %19, label %43

19:                                               ; preds = %11
  %20 = load ptr, ptr %3, align 8, !tbaa !4
  %21 = getelementptr inbounds nuw %struct.AVProbeData, ptr %20, i32 0, i32 1
  %22 = load ptr, ptr %21, align 8, !tbaa !9
  %23 = getelementptr inbounds i8, ptr %22, i64 3
  %24 = load i8, ptr %23, align 1, !tbaa !13
  %25 = zext i8 %24 to i32
  %26 = icmp eq i32 %25, 0
  br i1 %26, label %27, label %43

27:                                               ; preds = %19
  %28 = load ptr, ptr %3, align 8, !tbaa !4
  %29 = getelementptr inbounds nuw %struct.AVProbeData, ptr %28, i32 0, i32 1
  %30 = load ptr, ptr %29, align 8, !tbaa !9
  %31 = getelementptr inbounds i8, ptr %30, i64 2
  %32 = load i8, ptr %31, align 1, !tbaa !13
  %33 = zext i8 %32 to i32
  %34 = icmp sge i32 %33, 1
  br i1 %34, label %35, label %43

35:                                               ; preds = %27
  %36 = load ptr, ptr %3, align 8, !tbaa !4
  %37 = getelementptr inbounds nuw %struct.AVProbeData, ptr %36, i32 0, i32 1
  %38 = load ptr, ptr %37, align 8, !tbaa !9
  %39 = getelementptr inbounds i8, ptr %38, i64 2
  %40 = load i8, ptr %39, align 1, !tbaa !13
  %41 = zext i8 %40 to i32
  %42 = icmp sle i32 %41, 4
  br i1 %42, label %97, label %43

43:                                               ; preds = %35, %27, %19, %11, %1
  %44 = load ptr, ptr %3, align 8, !tbaa !4
  %45 = getelementptr inbounds nuw %struct.AVProbeData, ptr %44, i32 0, i32 1
  %46 = load ptr, ptr %45, align 8, !tbaa !9
  %47 = getelementptr inbounds i8, ptr %46, i64 3
  %48 = load i8, ptr %47, align 1, !tbaa !13
  %49 = zext i8 %48 to i32
  %50 = icmp eq i32 %49, 100
  br i1 %50, label %51, label %98

51:                                               ; preds = %43
  %52 = load ptr, ptr %3, align 8, !tbaa !4
  %53 = getelementptr inbounds nuw %struct.AVProbeData, ptr %52, i32 0, i32 1
  %54 = load ptr, ptr %53, align 8, !tbaa !9
  %55 = getelementptr inbounds i8, ptr %54, i64 2
  %56 = load i8, ptr %55, align 1, !tbaa !13
  %57 = zext i8 %56 to i32
  %58 = icmp eq i32 %57, 163
  br i1 %58, label %59, label %98

59:                                               ; preds = %51
  %60 = load ptr, ptr %3, align 8, !tbaa !4
  %61 = getelementptr inbounds nuw %struct.AVProbeData, ptr %60, i32 0, i32 1
  %62 = load ptr, ptr %61, align 8, !tbaa !9
  %63 = getelementptr inbounds i8, ptr %62, i64 0
  %64 = load i8, ptr %63, align 1, !tbaa !13
  %65 = zext i8 %64 to i32
  %66 = icmp eq i32 %65, 0
  br i1 %66, label %67, label %98

67:                                               ; preds = %59
  %68 = load ptr, ptr %3, align 8, !tbaa !4
  %69 = getelementptr inbounds nuw %struct.AVProbeData, ptr %68, i32 0, i32 1
  %70 = load ptr, ptr %69, align 8, !tbaa !9
  %71 = getelementptr inbounds i8, ptr %70, i64 1
  %72 = load i8, ptr %71, align 1, !tbaa !13
  %73 = zext i8 %72 to i32
  %74 = icmp sge i32 %73, 1
  br i1 %74, label %75, label %98

75:                                               ; preds = %67
  %76 = load ptr, ptr %3, align 8, !tbaa !4
  %77 = getelementptr inbounds nuw %struct.AVProbeData, ptr %76, i32 0, i32 1
  %78 = load ptr, ptr %77, align 8, !tbaa !9
  %79 = getelementptr inbounds i8, ptr %78, i64 1
  %80 = load i8, ptr %79, align 1, !tbaa !13
  %81 = zext i8 %80 to i32
  %82 = icmp sle i32 %81, 3
  br i1 %82, label %83, label %98

83:                                               ; preds = %75
  %84 = load ptr, ptr %3, align 8, !tbaa !4
  %85 = getelementptr inbounds nuw %struct.AVProbeData, ptr %84, i32 0, i32 1
  %86 = load ptr, ptr %85, align 8, !tbaa !9
  %87 = getelementptr inbounds i8, ptr %86, i64 4
  %88 = load i32, ptr %87, align 1, !tbaa !13
  %89 = icmp ne i32 %88, 0
  br i1 %89, label %90, label %98

90:                                               ; preds = %83
  %91 = load ptr, ptr %3, align 8, !tbaa !4
  %92 = getelementptr inbounds nuw %struct.AVProbeData, ptr %91, i32 0, i32 1
  %93 = load ptr, ptr %92, align 8, !tbaa !9
  %94 = getelementptr inbounds i8, ptr %93, i64 8
  %95 = load i32, ptr %94, align 1, !tbaa !13
  %96 = icmp ne i32 %95, 0
  br i1 %96, label %97, label %98

97:                                               ; preds = %90, %35
  store i32 75, ptr %2, align 4
  br label %99

98:                                               ; preds = %90, %83, %75, %67, %59, %51, %43
  store i32 0, ptr %2, align 4
  br label %99

99:                                               ; preds = %98, %97
  %100 = load i32, ptr %2, align 4
  ret i32 %100
}