; Function Attrs: mustprogress nofree norecurse nosync nounwind willreturn memory(read, inaccessiblemem: none) uwtable
define internal range(i32 0, 76) i32 @ircam_probe(ptr noundef readonly captures(none) %0) #0 {
  %2 = getelementptr inbounds nuw i8, ptr %0, i64 8
  %3 = load ptr, ptr %2, align 8, !tbaa !4
  %4 = load i8, ptr %3, align 1, !tbaa !11
  %5 = icmp eq i8 %4, 100
  br i1 %5, label %6, label %18

6:                                                ; preds = %1
  %7 = getelementptr inbounds nuw i8, ptr %3, i64 1
  %8 = load i8, ptr %7, align 1, !tbaa !11
  %9 = icmp eq i8 %8, -93
  br i1 %9, label %10, label %18

10:                                               ; preds = %6
  %11 = getelementptr inbounds nuw i8, ptr %3, i64 3
  %12 = load i8, ptr %11, align 1, !tbaa !11
  %13 = icmp eq i8 %12, 0
  br i1 %13, label %14, label %18

14:                                               ; preds = %10
  %15 = getelementptr inbounds nuw i8, ptr %3, i64 2
  %16 = load i8, ptr %15, align 1, !tbaa !11
  %17 = add i8 %16, -1
  %or.cond = icmp ult i8 %17, 4
  br i1 %or.cond, label %38, label %18

18:                                               ; preds = %14, %10, %6, %1
  %19 = getelementptr inbounds nuw i8, ptr %3, i64 3
  %20 = load i8, ptr %19, align 1, !tbaa !11
  %21 = icmp eq i8 %20, 100
  br i1 %21, label %22, label %37

22:                                               ; preds = %18
  %23 = getelementptr inbounds nuw i8, ptr %3, i64 2
  %24 = load i8, ptr %23, align 1, !tbaa !11
  %25 = icmp eq i8 %24, -93
  %26 = icmp eq i8 %4, 0
  %or.cond18 = and i1 %26, %25
  br i1 %or.cond18, label %27, label %37

27:                                               ; preds = %22
  %28 = getelementptr inbounds nuw i8, ptr %3, i64 1
  %29 = load i8, ptr %28, align 1, !tbaa !11
  %30 = add i8 %29, -1
  %or.cond17 = icmp ult i8 %30, 3
  br i1 %or.cond17, label %31, label %37

31:                                               ; preds = %27
  %32 = getelementptr inbounds nuw i8, ptr %3, i64 4
  %33 = load i32, ptr %32, align 1, !tbaa !11
  %.not15 = icmp eq i32 %33, 0
  br i1 %.not15, label %37, label %34

34:                                               ; preds = %31
  %35 = getelementptr inbounds nuw i8, ptr %3, i64 8
  %36 = load i32, ptr %35, align 1, !tbaa !11
  %.not16 = icmp eq i32 %36, 0
  br i1 %.not16, label %37, label %38

37:                                               ; preds = %34, %31, %27, %22, %18
  br label %38

38:                                               ; preds = %34, %14, %37
  %.0 = phi i32 [ 0, %37 ], [ 75, %14 ], [ 75, %34 ]
  ret i32 %.0
}